; Function Attrs: nounwind uwtable
define noalias nonnull ptr @l_Lean_Server_Completion_findCompletionInfosAt___lambda__1___boxed(ptr noundef %0, ptr noundef %1, ptr noundef %2) #0 {
  %4 = ptrtoint ptr %1 to i64
  %5 = and i64 %4, 1
  %.not = icmp eq i64 %5, 0
  br i1 %.not, label %6, label %lean_dec.exit8

6:                                                ; preds = %3
  %7 = load i32, ptr %1, align 4, !tbaa !8
  %8 = icmp sgt i32 %7, 1
  br i1 %8, label %9, label %11, !prof !11

9:                                                ; preds = %6
  %10 = add nsw i32 %7, -1
  store i32 %10, ptr %1, align 4, !tbaa !8
  br label %lean_dec.exit8

11:                                               ; preds = %6
  %.not.i = icmp eq i32 %7, 0
  br i1 %.not.i, label %lean_dec.exit8, label %12

12:                                               ; preds = %11
  tail call void @lean_dec_ref_cold(ptr noundef nonnull %1) #4
  br label %lean_dec.exit8

lean_dec.exit8:                                   ; preds = %12, %11, %9, %3
  %13 = getelementptr i8, ptr %0, i64 8
  %.val.i.i = load i64, ptr %13, align 8, !tbaa !12
  %14 = load ptr, ptr @l___private_Lean_Server_Completion_CompletionInfoSelection_0__Lean_Server_Completion_filterDuplicateCompletionInfos___closed__1, align 8, !tbaa !4
  %15 = tail call ptr @l_Array_forIn_x27Unsafe_loop___at___private_Lean_Server_Completion_CompletionInfoSelection_0__Lean_Server_Completion_filterDuplicateCompletionInfos___spec__2(ptr readonly poison, ptr nonnull poison, ptr noundef readonly %0, i64 noundef %.val.i.i, i64 noundef 0, ptr noundef %14)
  tail call void @lean_inc_heartbeat() #4
  %16 = tail call noalias ptr @mi_malloc_small(i64 noundef 24) #4
  %17 = icmp eq ptr %16, null
  br i1 %17, label %18, label %l_Lean_Server_Completion_findCompletionInfosAt___lambda__1.exit

18:                                               ; preds = %lean_dec.exit8
  tail call void @lean_internal_panic_out_of_memory() #5
  unreachable

l_Lean_Server_Completion_findCompletionInfosAt___lambda__1.exit: ; preds = %lean_dec.exit8
  %19 = and i64 %4, 510
  %20 = or disjoint i64 %19, 1
  %21 = inttoptr i64 %20 to ptr
  %22 = getelementptr inbounds nuw i8, ptr %16, i64 4
  store i32 1, ptr %16, align 4, !tbaa !8
  store i32 131096, ptr %22, align 4
  %23 = getelementptr inbounds nuw i8, ptr %16, i64 8
  store ptr %15, ptr %23, align 8, !tbaa !4
  %24 = getelementptr inbounds nuw i8, ptr %16, i64 16
  store ptr %21, ptr %24, align 8, !tbaa !4
  %25 = ptrtoint ptr %2 to i64
  %26 = and i64 %25, 1
  %.not13 = icmp eq i64 %26, 0
  br i1 %.not13, label %27, label %lean_dec.exit7

27:                                               ; preds = %l_Lean_Server_Completion_findCompletionInfosAt___lambda__1.exit
  %28 = load i32, ptr %2, align 4, !tbaa !8
  %29 = icmp sgt i32 %28, 1
  br i1 %29, label %30, label %32, !prof !11

30:                                               ; preds = %27
  %31 = add nsw i32 %28, -1
  store i32 %31, ptr %2, align 4, !tbaa !8
  br label %lean_dec.exit7

32:                                               ; preds = %27
  %.not.i9 = icmp eq i32 %28, 0
  br i1 %.not.i9, label %lean_dec.exit7, label %33

33:                                               ; preds = %32
  tail call void @lean_dec_ref_cold(ptr noundef nonnull %2) #4
  br label %lean_dec.exit7

lean_dec.exit7:                                   ; preds = %33, %32, %30, %l_Lean_Server_Completion_findCompletionInfosAt___lambda__1.exit
  %34 = ptrtoint ptr %0 to i64
  %35 = and i64 %34, 1
  %.not14 = icmp eq i64 %35, 0
  br i1 %.not14, label %36, label %lean_dec.exit

36:                                               ; preds = %lean_dec.exit7
  %37 = load i32, ptr %0, align 4, !tbaa !8
  %38 = icmp sgt i32 %37, 1
  br i1 %38, label %39, label %41, !prof !11

39:                                               ; preds = %36
  %40 = add nsw i32 %37, -1
  store i32 %40, ptr %0, align 4, !tbaa !8
  br label %lean_dec.exit

41:                                               ; preds = %36
  %.not.i11 = icmp eq i32 %37, 0
  br i1 %.not.i11, label %lean_dec.exit, label %42

42:                                               ; preds = %41
  tail call void @lean_dec_ref_cold(ptr noundef nonnull %0) #4
  br label %lean_dec.exit

lean_dec.exit:                                    ; preds = %42, %41, %39, %lean_dec.exit7
  ret ptr %16
}